target datalayout = "e-m:e-p270:32:32-p271:32:32-p272:64:64-i64:64-i128:128-f80:128-n8:16:32:64-S128"
target triple = "x86_64-pc-linux-gnu"

%struct.BrotliDecoderStateStruct = type { i32, i32, %struct.BrotliBitReader, ptr, ptr, ptr, %union.anon, i64, i32, i32, i32, i32, i32, i32, [4 x i32], i32, i32, ptr, ptr, ptr, ptr, ptr, ptr, %struct.HuffmanTreeGroup, %struct.HuffmanTreeGroup, %struct.HuffmanTreeGroup, ptr, ptr, i32, i32, [3 x i64], i64, [3 x i64], [6 x i64], i64, i64, i64, ptr, ptr, i64, i64, i64, [65 x i32], i32, i32, i8, ptr, ptr, ptr, i64, i32, i32, i32, i32, i32, i32, i64, ptr, ptr, ptr, ptr, [8 x i32], %union.anon.0 }
%struct.BrotliBitReader = type { i64, i64, ptr, ptr, ptr }
%union.anon = type { i64 }
%struct.HuffmanTreeGroup = type { ptr, ptr, i16, i16, i16 }
%union.anon.0 = type { %struct.BrotliMetablockBodyArena }
%struct.BrotliMetablockBodyArena = type { [544 x i8], [544 x i64] }

; Function Attrs: noinline nounwind uwtable
define internal i32 @BrotliEnsureRingBuffer(ptr noundef %0) #5 {
  %2 = alloca i32, align 4
  %3 = alloca ptr, align 8
  %4 = alloca ptr, align 8
  %5 = alloca i32, align 4
  store ptr %0, ptr %3, align 8, !tbaa !3
  call void @llvm.lifetime.start.p0(i64 8, ptr %4) #11
  %6 = load ptr, ptr %3, align 8, !tbaa !3
  %7 = getelementptr inbounds nuw %struct.BrotliDecoderStateStruct, ptr %6, i32 0, i32 17
  %8 = load ptr, ptr %7, align 8, !tbaa !48
  store ptr %8, ptr %4, align 8, !tbaa !23
  %9 = load ptr, ptr %3, align 8, !tbaa !3
  %10 = getelementptr inbounds nuw %struct.BrotliDecoderStateStruct, ptr %9, i32 0, i32 11
  %11 = load i32, ptr %10, align 4, !tbaa !79
  %12 = load ptr, ptr %3, align 8, !tbaa !3
  %13 = getelementptr inbounds nuw %struct.BrotliDecoderStateStruct, ptr %12, i32 0, i32 54
  %14 = load i32, ptr %13, align 8, !tbaa !94
  %15 = icmp eq i32 %11, %14
  br i1 %15, label %16, label %17

16:                                               ; preds = %1
  store i32 1, ptr %2, align 4
  store i32 1, ptr %5, align 4
  br label %99

17:                                               ; preds = %1
  %18 = load ptr, ptr %3, align 8, !tbaa !3
  %19 = getelementptr inbounds nuw %struct.BrotliDecoderStateStruct, ptr %18, i32 0, i32 3
  %20 = load ptr, ptr %19, align 8, !tbaa !34
  %21 = load ptr, ptr %3, align 8, !tbaa !3
  %22 = getelementptr inbounds nuw %struct.BrotliDecoderStateStruct, ptr %21, i32 0, i32 5
  %23 = load ptr, ptr %22, align 8, !tbaa !21
  %24 = load ptr, ptr %3, align 8, !tbaa !3
  %25 = getelementptr inbounds nuw %struct.BrotliDecoderStateStruct, ptr %24, i32 0, i32 54
  %26 = load i32, ptr %25, align 8, !tbaa !94
  %27 = sext i32 %26 to i64
  %28 = add i64 %27, 542
  %29 = call ptr %20(ptr noundef %23, i64 noundef %28)
  %30 = load ptr, ptr %3, align 8, !tbaa !3
  %31 = getelementptr inbounds nuw %struct.BrotliDecoderStateStruct, ptr %30, i32 0, i32 17
  store ptr %29, ptr %31, align 8, !tbaa !48
  %32 = load ptr, ptr %3, align 8, !tbaa !3
  %33 = getelementptr inbounds nuw %struct.BrotliDecoderStateStruct, ptr %32, i32 0, i32 17
  %34 = load ptr, ptr %33, align 8, !tbaa !48
  %35 = icmp eq ptr %34, null
  br i1 %35, label %36, label %40

36:                                               ; preds = %17
  %37 = load ptr, ptr %4, align 8, !tbaa !23
  %38 = load ptr, ptr %3, align 8, !tbaa !3
  %39 = getelementptr inbounds nuw %struct.BrotliDecoderStateStruct, ptr %38, i32 0, i32 17
  store ptr %37, ptr %39, align 8, !tbaa !48
  store i32 0, ptr %2, align 4
  store i32 1, ptr %5, align 4
  br label %99

40:                                               ; preds = %17
  %41 = load ptr, ptr %3, align 8, !tbaa !3
  %42 = getelementptr inbounds nuw %struct.BrotliDecoderStateStruct, ptr %41, i32 0, i32 17
  %43 = load ptr, ptr %42, align 8, !tbaa !48
  %44 = load ptr, ptr %3, align 8, !tbaa !3
  %45 = getelementptr inbounds nuw %struct.BrotliDecoderStateStruct, ptr %44, i32 0, i32 54
  %46 = load i32, ptr %45, align 8, !tbaa !94
  %47 = sub nsw i32 %46, 2
  %48 = sext i32 %47 to i64
  %49 = getelementptr inbounds i8, ptr %43, i64 %48
  store i8 0, ptr %49, align 1, !tbaa !51
  %50 = load ptr, ptr %3, align 8, !tbaa !3
  %51 = getelementptr inbounds nuw %struct.BrotliDecoderStateStruct, ptr %50, i32 0, i32 17
  %52 = load ptr, ptr %51, align 8, !tbaa !48
  %53 = load ptr, ptr %3, align 8, !tbaa !3
  %54 = getelementptr inbounds nuw %struct.BrotliDecoderStateStruct, ptr %53, i32 0, i32 54
  %55 = load i32, ptr %54, align 8, !tbaa !94
  %56 = sub nsw i32 %55, 1
  %57 = sext i32 %56 to i64
  %58 = getelementptr inbounds i8, ptr %52, i64 %57
  store i8 0, ptr %58, align 1, !tbaa !51
  %59 = load ptr, ptr %4, align 8, !tbaa !23
  %60 = icmp ne ptr %59, null
  br i1 %60, label %61, label %77

61:                                               ; preds = %40
  %62 = load ptr, ptr %3, align 8, !tbaa !3
  %63 = getelementptr inbounds nuw %struct.BrotliDecoderStateStruct, ptr %62, i32 0, i32 17
  %64 = load ptr, ptr %63, align 8, !tbaa !48
  %65 = load ptr, ptr %4, align 8, !tbaa !23
  %66 = load ptr, ptr %3, align 8, !tbaa !3
  %67 = getelementptr inbounds nuw %struct.BrotliDecoderStateStruct, ptr %66, i32 0, i32 8
  %68 = load i32, ptr %67, align 8, !tbaa !81
  %69 = sext i32 %68 to i64
  call void @llvm.memcpy.p0.p0.i64(ptr align 1 %64, ptr align 1 %65, i64 %69, i1 false)
  %70 = load ptr, ptr %3, align 8, !tbaa !3
  %71 = getelementptr inbounds nuw %struct.BrotliDecoderStateStruct, ptr %70, i32 0, i32 4
  %72 = load ptr, ptr %71, align 8, !tbaa !20
  %73 = load ptr, ptr %3, align 8, !tbaa !3
  %74 = getelementptr inbounds nuw %struct.BrotliDecoderStateStruct, ptr %73, i32 0, i32 5
  %75 = load ptr, ptr %74, align 8, !tbaa !21
  %76 = load ptr, ptr %4, align 8, !tbaa !23
  call void %72(ptr noundef %75, ptr noundef %76)
  store ptr null, ptr %4, align 8, !tbaa !23
  br label %77

77:                                               ; preds = %61, %40
  %78 = load ptr, ptr %3, align 8, !tbaa !3
  %79 = getelementptr inbounds nuw %struct.BrotliDecoderStateStruct, ptr %78, i32 0, i32 54
  %80 = load i32, ptr %79, align 8, !tbaa !94
  %81 = load ptr, ptr %3, align 8, !tbaa !3
  %82 = getelementptr inbounds nuw %struct.BrotliDecoderStateStruct, ptr %81, i32 0, i32 11
  store i32 %80, ptr %82, align 4, !tbaa !79
  %83 = load ptr, ptr %3, align 8, !tbaa !3
  %84 = getelementptr inbounds nuw %struct.BrotliDecoderStateStruct, ptr %83, i32 0, i32 54
  %85 = load i32, ptr %84, align 8, !tbaa !94
  %86 = sub nsw i32 %85, 1
  %87 = load ptr, ptr %3, align 8, !tbaa !3
  %88 = getelementptr inbounds nuw %struct.BrotliDecoderStateStruct, ptr %87, i32 0, i32 12
  store i32 %86, ptr %88, align 8, !tbaa !86
  %89 = load ptr, ptr %3, align 8, !tbaa !3
  %90 = getelementptr inbounds nuw %struct.BrotliDecoderStateStruct, ptr %89, i32 0, i32 17
  %91 = load ptr, ptr %90, align 8, !tbaa !48
  %92 = load ptr, ptr %3, align 8, !tbaa !3
  %93 = getelementptr inbounds nuw %struct.BrotliDecoderStateStruct, ptr %92, i32 0, i32 11
  %94 = load i32, ptr %93, align 4, !tbaa !79
  %95 = sext i32 %94 to i64
  %96 = getelementptr inbounds i8, ptr %91, i64 %95
  %97 = load ptr, ptr %3, align 8, !tbaa !3
  %98 = getelementptr inbounds nuw %struct.BrotliDecoderStateStruct, ptr %97, i32 0, i32 18
  store ptr %96, ptr %98, align 8, !tbaa !135
  store i32 1, ptr %2, align 4
  store i32 1, ptr %5, align 4
  br label %99

99:                                               ; preds = %77, %36, %16
  call void @llvm.lifetime.end.p0(i64 8, ptr %4) #11
  %100 = load i32, ptr %2, align 4
  ret i32 %100
}